target datalayout = "e-m:e-p270:32:32-p271:32:32-p272:64:64-i64:64-i128:128-f80:128-n8:16:32:64-S128"
target triple = "x86_64-pc-linux-gnu"

%struct.MECmpContext = type { ptr, [6 x ptr], [6 x ptr], [6 x ptr], [6 x ptr], [6 x ptr], [6 x ptr], [6 x ptr], [6 x ptr], [6 x ptr], [6 x ptr], [6 x ptr], [6 x ptr], [6 x ptr], [6 x ptr], [2 x [4 x ptr]], [6 x ptr] }
%struct.ERContext = type { ptr, ptr, i32, ptr, i32, i32, i32, i64, i64, i32, i32, ptr, ptr, [3 x ptr], ptr, ptr, [2 x [4 x [2 x i32]]], %struct.ERPicture, %struct.ERPicture, %struct.ERPicture, [2 x ptr], [2 x ptr], i16, i16, i32, i32, ptr, ptr }
%struct.ERPicture = type { ptr, ptr, ptr, [2 x ptr], [2 x ptr], ptr, i32 }
%struct.AVCodecContext = type { ptr, i32, i32, ptr, i32, i32, ptr, ptr, ptr, i64, i32, i32, ptr, i32, %struct.AVRational, %struct.AVRational, %struct.AVRational, i32, i32, i32, i32, i32, %struct.AVRational, i32, i32, i32, i32, i32, i32, i32, i32, i32, i32, i32, ptr, ptr, i32, float, float, float, float, float, float, float, float, float, i32, i32, i32, i32, i32, i32, i32, i32, i32, i32, i32, i32, ptr, ptr, ptr, i32, i32, i32, i32, i32, i32, i32, i32, i32, i32, %struct.AVChannelLayout, i32, i32, i32, i32, i32, i32, i32, i32, ptr, i32, i32, i32, float, float, i32, i32, i32, i32, i32, ptr, i64, i64, float, float, i32, i32, ptr, ptr, i32, i32, i32, i32, i32, ptr, ptr, ptr, ptr, i32, i32, [8 x i64], i32, i32, i32, i32, i32, i32, i32, ptr, ptr, i32, i32, i32, i32, i32, i32, i32, i32, i32, i32, ptr, ptr, i32, i32, ptr, ptr, ptr, ptr, i32, i32, i64, i32, i32, i64, ptr, i64, ptr, i32, ptr, i32 }
%struct.AVRational = type { i32, i32 }
%struct.AVChannelLayout = type { i32, i32, %union.anon, ptr }
%union.anon = type { i64 }

; Function Attrs: nounwind uwtable
define void @ff_er_frame_start(ptr noundef %0) #0 {
  %2 = alloca ptr, align 8
  %3 = alloca %struct.MECmpContext, align 8
  store ptr %0, ptr %2, align 8, !tbaa !4
  %4 = load ptr, ptr %2, align 8, !tbaa !4
  %5 = getelementptr inbounds nuw %struct.ERContext, ptr %4, i32 0, i32 0
  %6 = load ptr, ptr %5, align 8, !tbaa !9
  %7 = getelementptr inbounds nuw %struct.AVCodecContext, ptr %6, i32 0, i32 102
  %8 = load i32, ptr %7, align 8, !tbaa !21
  %9 = icmp ne i32 %8, 0
  br i1 %9, label %11, label %10

10:                                               ; preds = %1
  br label %48

11:                                               ; preds = %1
  %12 = load ptr, ptr %2, align 8, !tbaa !4
  %13 = getelementptr inbounds nuw %struct.ERContext, ptr %12, i32 0, i32 2
  %14 = load i32, ptr %13, align 8, !tbaa !37
  %15 = icmp ne i32 %14, 0
  br i1 %15, label %27, label %16

16:                                               ; preds = %11
  call void @llvm.lifetime.start.p0(i64 792, ptr %3) #8
  %17 = load ptr, ptr %2, align 8, !tbaa !4
  %18 = getelementptr inbounds nuw %struct.ERContext, ptr %17, i32 0, i32 0
  %19 = load ptr, ptr %18, align 8, !tbaa !9
  call void @ff_me_cmp_init(ptr noundef %3, ptr noundef %19)
  %20 = getelementptr inbounds nuw %struct.MECmpContext, ptr %3, i32 0, i32 1
  %21 = getelementptr inbounds [6 x ptr], ptr %20, i64 0, i64 0
  %22 = load ptr, ptr %21, align 8, !tbaa !38
  %23 = load ptr, ptr %2, align 8, !tbaa !4
  %24 = getelementptr inbounds nuw %struct.ERContext, ptr %23, i32 0, i32 1
  store ptr %22, ptr %24, align 8, !tbaa !39
  %25 = load ptr, ptr %2, align 8, !tbaa !4
  %26 = getelementptr inbounds nuw %struct.ERContext, ptr %25, i32 0, i32 2
  store i32 1, ptr %26, align 8, !tbaa !37
  call void @llvm.lifetime.end.p0(i64 792, ptr %3) #8
  br label %27

27:                                               ; preds = %16, %11
  %28 = load ptr, ptr %2, align 8, !tbaa !4
  %29 = getelementptr inbounds nuw %struct.ERContext, ptr %28, i32 0, i32 11
  %30 = load ptr, ptr %29, align 8, !tbaa !40
  %31 = load ptr, ptr %2, align 8, !tbaa !4
  %32 = getelementptr inbounds nuw %struct.ERContext, ptr %31, i32 0, i32 7
  %33 = load i64, ptr %32, align 8, !tbaa !41
  %34 = load ptr, ptr %2, align 8, !tbaa !4
  %35 = getelementptr inbounds nuw %struct.ERContext, ptr %34, i32 0, i32 6
  %36 = load i32, ptr %35, align 8, !tbaa !42
  %37 = sext i32 %36 to i64
  %38 = mul nsw i64 %33, %37
  %39 = mul i64 %38, 1
  call void @llvm.memset.p0.i64(ptr align 1 %30, i8 127, i64 %39, i1 false)
  %40 = load ptr, ptr %2, align 8, !tbaa !4
  %41 = getelementptr inbounds nuw %struct.ERContext, ptr %40, i32 0, i32 9
  %42 = load ptr, ptr %2, align 8, !tbaa !4
  %43 = getelementptr inbounds nuw %struct.ERContext, ptr %42, i32 0, i32 4
  %44 = load i32, ptr %43, align 8, !tbaa !43
  %45 = mul nsw i32 3, %44
  store i32 %45, ptr %41, align 4, !tbaa !44
  %46 = load ptr, ptr %2, align 8, !tbaa !4
  %47 = getelementptr inbounds nuw %struct.ERContext, ptr %46, i32 0, i32 10
  store i32 0, ptr %47, align 4, !tbaa !45
  br label %48

48:                                               ; preds = %27, %10
  ret void
}