; Function Attrs: nounwind uwtable
define void @ff_er_frame_start(ptr noundef captures(none) %0) local_unnamed_addr #0 {
  %2 = alloca %struct.MECmpContext, align 8
  %3 = load ptr, ptr %0, align 8, !tbaa !4
  %4 = getelementptr inbounds nuw i8, ptr %3, i64 520
  %5 = load i32, ptr %4, align 8, !tbaa !19
  %.not = icmp eq i32 %5, 0
  br i1 %.not, label %27, label %6

6:                                                ; preds = %1
  %7 = getelementptr inbounds nuw i8, ptr %0, i64 16
  %8 = load i32, ptr %7, align 8, !tbaa !35
  %.not11 = icmp eq i32 %8, 0
  br i1 %.not11, label %9, label %13

9:                                                ; preds = %6
  call void @llvm.lifetime.start.p0(i64 792, ptr nonnull %2) #6
  call void @ff_me_cmp_init(ptr noundef nonnull %2, ptr noundef nonnull %3) #6
  %10 = getelementptr inbounds nuw i8, ptr %2, i64 8
  %11 = load ptr, ptr %10, align 8, !tbaa !36
  %12 = getelementptr inbounds nuw i8, ptr %0, i64 8
  store ptr %11, ptr %12, align 8, !tbaa !37
  store i32 1, ptr %7, align 8, !tbaa !35
  call void @llvm.lifetime.end.p0(i64 792, ptr nonnull %2) #6
  br label %13

13:                                               ; preds = %9, %6
  %14 = getelementptr inbounds nuw i8, ptr %0, i64 72
  %15 = load ptr, ptr %14, align 8, !tbaa !38
  %16 = getelementptr inbounds nuw i8, ptr %0, i64 48
  %17 = load i64, ptr %16, align 8, !tbaa !39
  %18 = getelementptr inbounds nuw i8, ptr %0, i64 40
  %19 = load i32, ptr %18, align 8, !tbaa !40
  %20 = sext i32 %19 to i64
  %21 = mul nsw i64 %17, %20
  call void @llvm.memset.p0.i64(ptr align 1 %15, i8 127, i64 %21, i1 false)
  %22 = getelementptr inbounds nuw i8, ptr %0, i64 64
  %23 = getelementptr inbounds nuw i8, ptr %0, i64 32
  %24 = load i32, ptr %23, align 8, !tbaa !41
  %25 = mul nsw i32 %24, 3
  store i32 %25, ptr %22, align 4, !tbaa !42
  %26 = getelementptr inbounds nuw i8, ptr %0, i64 68
  store i32 0, ptr %26, align 4, !tbaa !43
  br label %27

27:                                               ; preds = %1, %13
  ret void
}